###############################################################################
#                                                                             #
# IAR C/C++ Compiler V8.10.3.10338/W32 for 8051         12/May/2021  15:37:22 #
# Copyright 2004-2011 IAR Systems AB.                                         #
#                                                                             #
#    Core               =  plain                                              #
#    Code model         =  banked                                             #
#    Data model         =  large                                              #
#    Calling convention =  xdata reentrant                                    #
#    Constant location  =  data_rom                                           #
#    Dptr setup         =  1,16                                               #
#    Source file        =  E:\zb\温湿度采集1 - 副本\ZStack-CC2530-2.3.0-1.4.0 #
#                          \Projects\zstack\Samples\SampleApp\Source\SampleAp #
#                          p.c                                                #
#    Command line       =  -f "E:\zb\温湿度采集1 - 副本\ZStack-CC2530-2.3.0-1 #
#                          .4.0\Projects\zstack\Samples\SampleApp\CC2530DB\.. #
#                          \..\..\Tools\CC2530DB\f8wCoord.cfg" (-DCPU32MHZ    #
#                          -DROOT=__near_func -DMAC_CFG_APP_PENDING_QUEUE=TRU #
#                          E -DZDO_COORDINATOR -DRTR_NWK -DBLINK_LEDS) -f     #
#                          "E:\zb\温湿度采集1 - 副本\ZStack-CC2530-2.3.0-1.4. #
#                          0\Projects\zstack\Samples\SampleApp\CC2530DB\..\.. #
#                          \..\Tools\CC2530DB\f8wConfig.cfg" (-DSECURE=0      #
#                          -DZG_SECURE_DYNAMIC=0 -DREFLECTOR                  #
#                          -DDEFAULT_CHANLIST=0x00000800                      #
#                          -DZDAPP_CONFIG_PAN_ID=0xFFF1                       #
#                          -DNWK_START_DELAY=100 -DEXTENDED_JOINING_RANDOM_MA #
#                          SK=0x007F -DBEACON_REQUEST_DELAY=100               #
#                          -DBEACON_REQ_DELAY_MASK=0x00FF                     #
#                          -DROUTE_EXPIRY_TIME=30 -DAPSC_ACK_WAIT_DURATION_PO #
#                          LLED=3000 -DNWK_INDIRECT_MSG_TIMEOUT=7             #
#                          -DMAX_RREQ_ENTRIES=8 -DAPSC_MAX_FRAME_RETRIES=3    #
#                          -DNWK_MAX_DATA_RETRIES=2                           #
#                          -DMAX_POLL_FAILURE_RETRIES=2 -DMAX_BCAST=9         #
#                          -DAPS_MAX_GROUPS=16 -DMAX_RTG_ENTRIES=40           #
#                          -DNWK_MAX_BINDING_ENTRIES=4                        #
#                          -DMAX_BINDING_CLUSTER_IDS=4 "-DDEFAULT_KEY={0x01,  #
#                          0x03, 0x05, 0x07, 0x09, 0x0B, 0x0D, 0x0F, 0x00,    #
#                          0x02, 0x04, 0x06, 0x08, 0x0A, 0x0C, 0x0D}"         #
#                          -DMAC_MAX_FRAME_SIZE=116 "-DCONST=const __code"    #
#                          -DGENERIC=__generic -DRFD_RCVC_ALWAYS_ON=FALSE     #
#                          -DPOLL_RATE=1000 -DQUEUED_POLL_RATE=100            #
#                          -DRESPONSE_POLL_RATE=100) -DREJOIN_POLL_RATE=440   #
#                          "E:\zb\温湿度采集1 - 副本\ZStack-CC2530-2.3.0-1.4. #
#                          0\Projects\zstack\Samples\SampleApp\Source\SampleA #
#                          pp.c" -D ZIGBEEPRO -D ZTOOL_P1 -D xMT_TASK -D      #
#                          xMT_SYS_FUNC -D HAL_LCD -D xMT_ZDO_FUNC -D         #
#                          LCD_SUPPORTED=DEBUG -lC "E:\zb\温湿度采集1 -       #
#                          副本\ZStack-CC2530-2.3.0-1.4.0\Projects\zstack\Sam #
#                          ples\SampleApp\CC2530DB\CoordinatorEB-Pro\List\"   #
#                          -lA "E:\zb\温湿度采集1 -                           #
#                          副本\ZStack-CC2530-2.3.0-1.4.0\Projects\zstack\Sam #
#                          ples\SampleApp\CC2530DB\CoordinatorEB-Pro\List\"   #
#                          --diag_suppress Pe001,Pa010 -o "E:\zb\温湿度采集1  #
#                          - 副本\ZStack-CC2530-2.3.0-1.4.0\Projects\zstack\S #
#                          amples\SampleApp\CC2530DB\CoordinatorEB-Pro\Obj\"  #
#                          -e --debug --core=plain --dptr=16,1                #
#                          --data_model=large --code_model=banked             #
#                          --calling_convention=xdata_reentrant               #
#                          --place_constants=data_rom --nr_virtual_regs 16    #
#                          -I "E:\zb\温湿度采集1 - 副本\ZStack-CC2530-2.3.0-1 #
#                          .4.0\Projects\zstack\Samples\SampleApp\CC2530DB\"  #
#                          -I "E:\zb\温湿度采集1 - 副本\ZStack-CC2530-2.3.0-1 #
#                          .4.0\Projects\zstack\Samples\SampleApp\CC2530DB\.. #
#                          \SOURCE\" -I "E:\zb\温湿度采集1 -                  #
#                          副本\ZStack-CC2530-2.3.0-1.4.0\Projects\zstack\Sam #
#                          ples\SampleApp\CC2530DB\..\..\..\ZMAIN\TI2530DB\"  #
#                          -I "E:\zb\温湿度采集1 - 副本\ZStack-CC2530-2.3.0-1 #
#                          .4.0\Projects\zstack\Samples\SampleApp\CC2530DB\.. #
#                          \..\..\..\..\COMPONENTS\MT\" -I                    #
#                          "E:\zb\温湿度采集1 - 副本\ZStack-CC2530-2.3.0-1.4. #
#                          0\Projects\zstack\Samples\SampleApp\CC2530DB\..\.. #
#                          \..\..\..\COMPONENTS\HAL\INCLUDE\" -I              #
#                          "E:\zb\温湿度采集1 - 副本\ZStack-CC2530-2.3.0-1.4. #
#                          0\Projects\zstack\Samples\SampleApp\CC2530DB\..\.. #
#                          \..\..\..\COMPONENTS\HAL\TARGET\CC2530EB\" -I      #
#                          "E:\zb\温湿度采集1 - 副本\ZStack-CC2530-2.3.0-1.4. #
#                          0\Projects\zstack\Samples\SampleApp\CC2530DB\..\.. #
#                          \..\..\..\COMPONENTS\OSAL\MCU\CCSOC\" -I           #
#                          "E:\zb\温湿度采集1 - 副本\ZStack-CC2530-2.3.0-1.4. #
#                          0\Projects\zstack\Samples\SampleApp\CC2530DB\..\.. #
#                          \..\..\..\COMPONENTS\OSAL\INCLUDE\" -I             #
#                          "E:\zb\温湿度采集1 - 副本\ZStack-CC2530-2.3.0-1.4. #
#                          0\Projects\zstack\Samples\SampleApp\CC2530DB\..\.. #
#                          \..\..\..\COMPONENTS\STACK\AF\" -I                 #
#                          "E:\zb\温湿度采集1 - 副本\ZStack-CC2530-2.3.0-1.4. #
#                          0\Projects\zstack\Samples\SampleApp\CC2530DB\..\.. #
#                          \..\..\..\COMPONENTS\STACK\NWK\" -I                #
#                          "E:\zb\温湿度采集1 - 副本\ZStack-CC2530-2.3.0-1.4. #
#                          0\Projects\zstack\Samples\SampleApp\CC2530DB\..\.. #
#                          \..\..\..\COMPONENTS\STACK\SEC\" -I                #
#                          "E:\zb\温湿度采集1 - 副本\ZStack-CC2530-2.3.0-1.4. #
#                          0\Projects\zstack\Samples\SampleApp\CC2530DB\..\.. #
#                          \..\..\..\COMPONENTS\STACK\SAPI\" -I               #
#                          "E:\zb\温湿度采集1 - 副本\ZStack-CC2530-2.3.0-1.4. #
#                          0\Projects\zstack\Samples\SampleApp\CC2530DB\..\.. #
#                          \..\..\..\COMPONENTS\STACK\SYS\" -I                #
#                          "E:\zb\温湿度采集1 - 副本\ZStack-CC2530-2.3.0-1.4. #
#                          0\Projects\zstack\Samples\SampleApp\CC2530DB\..\.. #
#                          \..\..\..\COMPONENTS\STACK\ZDO\" -I                #
#                          "E:\zb\温湿度采集1 - 副本\ZStack-CC2530-2.3.0-1.4. #
#                          0\Projects\zstack\Samples\SampleApp\CC2530DB\..\.. #
#                          \..\..\..\COMPONENTS\ZMAC\F8W\" -I                 #
#                          "E:\zb\温湿度采集1 - 副本\ZStack-CC2530-2.3.0-1.4. #
#                          0\Projects\zstack\Samples\SampleApp\CC2530DB\..\.. #
#                          \..\..\..\COMPONENTS\ZMAC\" -I "E:\zb\温湿度采集1  #
#                          - 副本\ZStack-CC2530-2.3.0-1.4.0\Projects\zstack\S #
#                          amples\SampleApp\CC2530DB\..\..\..\..\..\COMPONENT #
#                          S\SERVICES\SADDR\" -I "E:\zb\温湿度采集1 -         #
#                          副本\ZStack-CC2530-2.3.0-1.4.0\Projects\zstack\Sam #
#                          ples\SampleApp\CC2530DB\..\..\..\..\..\COMPONENTS\ #
#                          SERVICES\SDATA\" -I "E:\zb\温湿度采集1 -           #
#                          副本\ZStack-CC2530-2.3.0-1.4.0\Projects\zstack\Sam #
#                          ples\SampleApp\CC2530DB\..\..\..\..\..\COMPONENTS\ #
#                          MAC\INCLUDE\" -I "E:\zb\温湿度采集1 -              #
#                          副本\ZStack-CC2530-2.3.0-1.4.0\Projects\zstack\Sam #
#                          ples\SampleApp\CC2530DB\..\..\..\..\..\COMPONENTS\ #
#                          MAC\HIGH_LEVEL\" -I "E:\zb\温湿度采集1 -           #
#                          副本\ZStack-CC2530-2.3.0-1.4.0\Projects\zstack\Sam #
#                          ples\SampleApp\CC2530DB\..\..\..\..\..\COMPONENTS\ #
#                          MAC\LOW_LEVEL\srf04\" -I "E:\zb\温湿度采集1 -      #
#                          副本\ZStack-CC2530-2.3.0-1.4.0\Projects\zstack\Sam #
#                          ples\SampleApp\CC2530DB\..\..\..\..\..\COMPONENTS\ #
#                          MAC\LOW_LEVEL\srf04\SINGLE_CHIP\" -Ohz             #
#    List file          =  E:\zb\温湿度采集1 - 副本\ZStack-CC2530-2.3.0-1.4.0 #
#                          \Projects\zstack\Samples\SampleApp\CC2530DB\Coordi #
#                          natorEB-Pro\List\SampleApp.lst                     #
#    Object file        =  E:\zb\温湿度采集1 - 副本\ZStack-CC2530-2.3.0-1.4.0 #
#                          \Projects\zstack\Samples\SampleApp\CC2530DB\Coordi #
#                          natorEB-Pro\Obj\SampleApp.r51                      #
#                                                                             #
#                                                                             #
###############################################################################

E:\zb\温湿度采集1 - 副本\ZStack-CC2530-2.3.0-1.4.0\Projects\zstack\Samples\SampleApp\Source\SampleApp.c
      1          /**************************************************************************************************
      2            Filename:       SampleApp.c
      3            Revised:        $Date: 2009-03-18 15:56:27 -0700 (Wed, 18 Mar 2009) $
      4            Revision:       $Revision: 19453 $
      5          
      6            Description:    Sample Application (no Profile).
      7          
      8          
      9            Copyright 2007 Texas Instruments Incorporated. All rights reserved.
     10          
     11            IMPORTANT: Your use of this Software is limited to those specific rights
     12            granted under the terms of a software license agreement between the user
     13            who downloaded the software, his/her employer (which must be your employer)
     14            and Texas Instruments Incorporated (the "License").  You may not use this
     15            Software unless you agree to abide by the terms of the License. The License
     16            limits your use, and you acknowledge, that the Software may not be modified,
     17            copied or distributed unless embedded on a Texas Instruments microcontroller
     18            or used solely and exclusively in conjunction with a Texas Instruments radio
     19            frequency transceiver, which is integrated into your product.  Other than for
     20            the foregoing purpose, you may not use, reproduce, copy, prepare derivative
     21            works of, modify, distribute, perform, display or sell this Software and/or
     22            its documentation for any purpose.
     23          
     24            YOU FURTHER ACKNOWLEDGE AND AGREE THAT THE SOFTWARE AND DOCUMENTATION ARE
     25            PROVIDED AS IS?WITHOUT WARRANTY OF ANY KIND, EITHER EXPRESS OR IMPLIED,
     26            INCLUDING WITHOUT LIMITATION, ANY WARRANTY OF MERCHANTABILITY, TITLE,
     27            NON-INFRINGEMENT AND FITNESS FOR A PARTICULAR PURPOSE. IN NO EVENT SHALL
     28            TEXAS INSTRUMENTS OR ITS LICENSORS BE LIABLE OR OBLIGATED UNDER CONTRACT,
     29            NEGLIGENCE, STRICT LIABILITY, CONTRIBUTION, BREACH OF WARRANTY, OR OTHER
     30            LEGAL EQUITABLE THEORY ANY DIRECT OR INDIRECT DAMAGES OR EXPENSES
     31            INCLUDING BUT NOT LIMITED TO ANY INCIDENTAL, SPECIAL, INDIRECT, PUNITIVE
     32            OR CONSEQUENTIAL DAMAGES, LOST PROFITS OR LOST DATA, COST OF PROCUREMENT
     33            OF SUBSTITUTE GOODS, TECHNOLOGY, SERVICES, OR ANY CLAIMS BY THIRD PARTIES
     34            (INCLUDING BUT NOT LIMITED TO ANY DEFENSE THEREOF), OR OTHER SIMILAR COSTS.
     35          
     36            Should you have any questions regarding your right to use this Software,
     37            contact Texas Instruments Incorporated at www.TI.com.
     38          **************************************************************************************************/
     39          
     40          /*********************************************************************
     41            This application isn't intended to do anything useful, it is
     42            intended to be a simple example of an application's structure.
     43          
     44            This application sends it's messages either as broadcast or
     45            broadcast filtered group messages.  The other (more normal)
     46            message addressing is unicast.  Most of the other sample
     47            applications are written to support the unicast message model.
     48          
     49            Key control:
     50              SW1:  Sends a flash command to all devices in Group 1.
     51              SW2:  Adds/Removes (toggles) this device in and out
     52                    of Group 1.  This will enable and disable the
     53                    reception of the flash command.
     54          *********************************************************************/
     55          
     56          /*********************************************************************
     57           * INCLUDES
     58           */
     59          #include "OSAL.h"
     60          #include "ZGlobals.h"
     61          #include "AF.h"
     62          #include "aps_groups.h"
     63          #include "ZDApp.h"
     64          
     65          #include "SampleApp.h"
     66          #include "SampleAppHw.h"
     67          
     68          #include "OnBoard.h"
     69          #include "onboard.h"
     70          
     71          /* HAL */
     72          #include "hal_lcd.h"
     73          #include "hal_led.h"
     74          #include "hal_key.h"
     75          #include "dht11.h" 
     76          
     77          /*********************************************************************
     78           * MACROS
     79           */
     80          
     81          /*********************************************************************
     82           * CONSTANTS
     83           */
     84          
     85          /*********************************************************************
     86           * TYPEDEFS
     87           */
     88          
     89          /*********************************************************************
     90           * GLOBAL VARIABLES
     91           */

   \                                 In  segment XDATA_Z, align 1, keep-with-next
     92          uint8 LedState = 0;
   \                     LedState:
   \   000000                DS 1
   \   000001                REQUIRE __INIT_XDATA_Z

   \                                 In  segment XDATA_Z, align 1, keep-with-next
     93          uint8 uartbuf[3];//获取控制命令
   \                     uartbuf:
   \   000000                DS 3
   \   000003                REQUIRE __INIT_XDATA_Z
     94          // This list should be filled with Application specific Cluster IDs.

   \                                 In  segment XDATA_ROM_C, align 1
     95          const cId_t SampleApp_ClusterList[SAMPLEAPP_MAX_CLUSTERS] =
   \                     SampleApp_ClusterList:
   \   000000   0100         DW 1
   \   000002   0200         DW 2
   \   000004   0300         DW 3
   \   000006   0400         DW 4
     96          {
     97            SAMPLEAPP_PERIODIC_CLUSTERID,
     98            SAMPLEAPP_FLASH_CLUSTERID,
     99            SAMPLEAPP_COM_CLUSTERID,      
    100            SAMPLEAPP_P2P_CLUSTERID      
    101          };
    102          

   \                                 In  segment XDATA_ROM_C, align 1
    103          const SimpleDescriptionFormat_t SampleApp_SimpleDesc =
   \                     SampleApp_SimpleDesc:
   \   000000   14           DB 20
   \   000001   080F         DW 3848
   \   000003   0100         DW 1
   \   000005   00           DB 0
   \   000006   04           DB 4
   \   000007   ....         DW SampleApp_ClusterList
   \   000009   04           DB 4
   \   00000A   ....         DW SampleApp_ClusterList
    104          {
    105            SAMPLEAPP_ENDPOINT,              //  int Endpoint;
    106            SAMPLEAPP_PROFID,                //  uint16 AppProfId[2];
    107            SAMPLEAPP_DEVICEID,              //  uint16 AppDeviceId[2];
    108            SAMPLEAPP_DEVICE_VERSION,        //  int   AppDevVer:4;
    109            SAMPLEAPP_FLAGS,                 //  int   AppFlags:4;
    110            SAMPLEAPP_MAX_CLUSTERS,          //  uint8  AppNumInClusters;
    111            (cId_t *)SampleApp_ClusterList,  //  uint8 *pAppInClusterList;
    112            SAMPLEAPP_MAX_CLUSTERS,          //  uint8  AppNumInClusters;
    113            (cId_t *)SampleApp_ClusterList   //  uint8 *pAppInClusterList;
    114          };
    115          
    116          // This is the Endpoint/Interface description.  It is defined here, but
    117          // filled-in in SampleApp_Init().  Another way to go would be to fill
    118          // in the structure here and make it a "const" (in code space).  The
    119          // way it's defined in this sample app it is define in RAM.

   \                                 In  segment XDATA_Z, align 1, keep-with-next
    120          endPointDesc_t SampleApp_epDesc;
   \                     SampleApp_epDesc:
   \   000000                DS 6
   \   000006                REQUIRE __INIT_XDATA_Z
    121          
    122          /*********************************************************************
    123           * EXTERNAL VARIABLES
    124           */
    125          
    126          /*********************************************************************
    127           * EXTERNAL FUNCTIONS
    128           */
    129          
    130          /*********************************************************************
    131           * LOCAL VARIABLES
    132           */

   \                                 In  segment XDATA_Z, align 1, keep-with-next
    133          uint8 SampleApp_TaskID;   // Task ID for internal task/event processing
   \                     SampleApp_TaskID:
   \   000000                DS 1
   \   000001                REQUIRE __INIT_XDATA_Z
    134                                    // This variable will be received when
    135                                    // SampleApp_Init() is called.

   \                                 In  segment XDATA_Z, align 1, keep-with-next
    136          devStates_t SampleApp_NwkState;
   \                     SampleApp_NwkState:
   \   000000                DS 1
   \   000001                REQUIRE __INIT_XDATA_Z
    137          

   \                                 In  segment XDATA_Z, align 1, keep-with-next
    138          uint8 SampleApp_TransID;  // This is the unique message ID (counter)
   \                     SampleApp_TransID:
   \   000000                DS 1
   \   000001                REQUIRE __INIT_XDATA_Z
    139          

   \                                 In  segment XDATA_Z, align 1, keep-with-next
    140          afAddrType_t SampleApp_Periodic_DstAddr;  //广播
   \                     SampleApp_Periodic_DstAddr:
   \   000000                DS 12
   \   00000C                REQUIRE __INIT_XDATA_Z

   \                                 In  segment XDATA_Z, align 1, keep-with-next
    141          afAddrType_t SampleApp_Flash_DstAddr;//组播
   \                     SampleApp_Flash_DstAddr:
   \   000000                DS 12
   \   00000C                REQUIRE __INIT_XDATA_Z
    142          

   \                                 In  segment XDATA_Z, align 1, keep-with-next
    143          aps_Group_t SampleApp_Group;
   \                     SampleApp_Group:
   \   000000                DS 18
   \   000012                REQUIRE __INIT_XDATA_Z
    144          

   \                                 In  segment XDATA_Z, align 1, keep-with-next
    145          uint8 SampleAppPeriodicCounter = 0;
   \                     SampleAppPeriodicCounter:
   \   000000                DS 1
   \   000001                REQUIRE __INIT_XDATA_Z

   \                                 In  segment XDATA_Z, align 1, keep-with-next
    146          uint8 SampleAppFlashCounter = 0;
   \                     SampleAppFlashCounter:
   \   000000                DS 1
   \   000001                REQUIRE __INIT_XDATA_Z

   \                                 In  segment XDATA_Z, align 1, keep-with-next
    147          uint8 sensor_value[20];//保存传感器值
   \                     sensor_value:
   \   000000                DS 20
   \   000014                REQUIRE __INIT_XDATA_Z
    148          
    149          /*********************************************************************
    150           * LOCAL FUNCTIONS
    151           */
    152          void SampleApp_HandleKeys( uint8 shift, uint8 keys );
    153          void SampleApp_MessageMSGCB( afIncomingMSGPacket_t *pckt );
    154          void SampleApp_SendPeriodicMessage( void );
    155          void SampleApp_SendFlashMessage( uint16 flashTime );
    156          
    157          static void rxCB(uint8 port,uint8 event);
    158          /*********************************************************************
    159           * NETWORK LAYER CALLBACKS
    160           */
    161          
    162          /*********************************************************************
    163           * PUBLIC FUNCTIONS
    164           */
    165          
    166          /*********************************************************************
    167           * @fn      SampleApp_Init
    168           *
    169           * @brief   Initialization function for the Generic App Task.
    170           *          This is called during initialization and should contain
    171           *          any application specific initialization (ie. hardware
    172           *          initialization/setup, table initialization, power up
    173           *          notificaiton ... ).
    174           *
    175           * @param   task_id - the ID assigned by OSAL.  This ID should be
    176           *                    used to send messages and set timers.
    177           *
    178           * @return  none
    179           */

   \                                 In  segment BANKED_CODE, align 1, keep-with-next
    180          void SampleApp_Init( uint8 task_id )
   \                     SampleApp_Init:
    181          {
   \   000000   74F5         MOV     A,#-0xb
   \   000002   12....       LCALL   ?BANKED_ENTER_XDATA
   \   000005                ; Saved register size: 11
   \   000005                ; Auto size: 29
   \   000005   74E3         MOV     A,#-0x1d
   \   000007   12....       LCALL   ?ALLOC_XSTACK8
   \   00000A   E9           MOV     A,R1
    182            SampleApp_TaskID = task_id;
   \   00000B   90....       MOV     DPTR,#SampleApp_TaskID
   \   00000E   F0           MOVX    @DPTR,A
    183            SampleApp_NwkState = DEV_INIT;
   \   00000F   90....       MOV     DPTR,#SampleApp_NwkState
   \   000012   7401         MOV     A,#0x1
   \   000014   F0           MOVX    @DPTR,A
    184            SampleApp_TransID = 0;
   \   000015   90....       MOV     DPTR,#SampleApp_TransID
   \   000018   E4           CLR     A
   \   000019   F0           MOVX    @DPTR,A
    185             //初始化串口的
    186            halUARTCfg_t uartConfig;//顶一个串口结构体
    187            uartConfig.configured             =TRUE;//串口配置为真
   \   00001A   85..82       MOV     DPL,?XSP + 0
   \   00001D   85..83       MOV     DPH,?XSP + 1
   \   000020   04           INC     A
   \   000021   F0           MOVX    @DPTR,A
    188            uartConfig.baudRate               =HAL_UART_BR_9600;//波特率为9600
   \   000022   12....       LCALL   ?XSTACK_DISP0_8
   \   000025   E4           CLR     A
   \   000026   F0           MOVX    @DPTR,A
    189            uartConfig.flowControl            =FALSE;//流控制为假
   \   000027   7402         MOV     A,#0x2
   \   000029   12....       LCALL   ?XSTACK_DISP0_8
   \   00002C   E4           CLR     A
   \   00002D   F0           MOVX    @DPTR,A
    190            uartConfig.callBackFunc       =    rxCB;
   \   00002E   741B         MOV     A,#0x1b
   \   000030   12....       LCALL   ?XSTACK_DISP0_8
   \   000033   74..         MOV     A,#??rxCB?relay & 0xff
   \   000035   F0           MOVX    @DPTR,A
   \   000036   A3           INC     DPTR
   \   000037   74..         MOV     A,#(??rxCB?relay >> 8) & 0xff
   \   000039   F0           MOVX    @DPTR,A
    191            HalUARTOpen(HAL_UART_PORT_0,&uartConfig);// 打开串口0
   \   00003A                ; Setup parameters for call to function HalUARTOpen
   \   00003A   85..82       MOV     DPL,?XSP + 0
   \   00003D   85..83       MOV     DPH,?XSP + 1
   \   000040   AA82         MOV     R2,DPL
   \   000042   AB83         MOV     R3,DPH
   \   000044   7900         MOV     R1,#0x0
   \   000046   12....       LCALL   ??HalUARTOpen?relay
    192            
    193            // Device hardware initialization can be added here or in main() (Zmain.c).
    194            // If the hardware is application specific - add it here.
    195            // If the hardware is other parts of the device add it in main().
    196          
    197           #if defined ( BUILD_ALL_DEVICES )
    198            // The "Demo" target is setup to have BUILD_ALL_DEVICES and HOLD_AUTO_START
    199            // We are looking at a jumper (defined in SampleAppHw.c) to be jumpered
    200            // together - if they are - we will start up a coordinator. Otherwise,
    201            // the device will start as a router.
    202            if ( readCoordinatorJumper() )
    203              zgDeviceLogicalType = ZG_DEVICETYPE_COORDINATOR;
    204            else
    205              zgDeviceLogicalType = ZG_DEVICETYPE_ROUTER;
    206          #endif // BUILD_ALL_DEVICES
    207          
    208          #if defined ( HOLD_AUTO_START )
    209            // HOLD_AUTO_START is a compile option that will surpress ZDApp
    210            //  from starting the device and wait for the application to
    211            //  start the device.
    212            ZDOInitDevice(0);
    213          #endif
    214          
    215            // Setup for the periodic message's destination address
    216            // Broadcast to everyone
    217            SampleApp_Periodic_DstAddr.addrMode = (afAddrMode_t)AddrBroadcast;
   \   000049   90....       MOV     DPTR,#SampleApp_Periodic_DstAddr + 8
   \   00004C   740F         MOV     A,#0xf
   \   00004E   F0           MOVX    @DPTR,A
    218            SampleApp_Periodic_DstAddr.endPoint = SAMPLEAPP_ENDPOINT;
   \   00004F   A3           INC     DPTR
   \   000050   7414         MOV     A,#0x14
   \   000052   F0           MOVX    @DPTR,A
    219            SampleApp_Periodic_DstAddr.addr.shortAddr = 0xFFFF;
   \   000053   90....       MOV     DPTR,#SampleApp_Periodic_DstAddr
   \   000056   74FF         MOV     A,#-0x1
   \   000058   F0           MOVX    @DPTR,A
   \   000059   A3           INC     DPTR
   \   00005A   F0           MOVX    @DPTR,A
    220          
    221            // Setup for the flash command's destination address - Group 1
    222            SampleApp_Flash_DstAddr.addrMode = (afAddrMode_t)afAddrGroup;
   \   00005B   90....       MOV     DPTR,#SampleApp_Flash_DstAddr + 8
   \   00005E   7401         MOV     A,#0x1
   \   000060   F0           MOVX    @DPTR,A
    223            SampleApp_Flash_DstAddr.endPoint = SAMPLEAPP_ENDPOINT;
   \   000061   A3           INC     DPTR
   \   000062   7414         MOV     A,#0x14
   \   000064   F0           MOVX    @DPTR,A
    224            SampleApp_Flash_DstAddr.addr.shortAddr = SAMPLEAPP_FLASH_GROUP; //组号1
   \   000065   90....       MOV     DPTR,#SampleApp_Flash_DstAddr
   \   000068   7401         MOV     A,#0x1
   \   00006A   F0           MOVX    @DPTR,A
   \   00006B   A3           INC     DPTR
   \   00006C   E4           CLR     A
   \   00006D   F0           MOVX    @DPTR,A
    225            
    226            // Fill out the endpoint description.
    227            SampleApp_epDesc.endPoint = SAMPLEAPP_ENDPOINT;
   \   00006E   90....       MOV     DPTR,#SampleApp_epDesc
   \   000071   7414         MOV     A,#0x14
   \   000073   F0           MOVX    @DPTR,A
    228            SampleApp_epDesc.task_id = &SampleApp_TaskID;
   \   000074   A3           INC     DPTR
   \   000075   74..         MOV     A,#SampleApp_TaskID & 0xff
   \   000077   F0           MOVX    @DPTR,A
   \   000078   A3           INC     DPTR
   \   000079   74..         MOV     A,#(SampleApp_TaskID >> 8) & 0xff
   \   00007B   F0           MOVX    @DPTR,A
    229            SampleApp_epDesc.simpleDesc
    230                      = (SimpleDescriptionFormat_t *)&SampleApp_SimpleDesc;
   \   00007C   A3           INC     DPTR
   \   00007D   74..         MOV     A,#SampleApp_SimpleDesc & 0xff
   \   00007F   F0           MOVX    @DPTR,A
   \   000080   A3           INC     DPTR
   \   000081   74..         MOV     A,#(SampleApp_SimpleDesc >> 8) & 0xff
   \   000083   F0           MOVX    @DPTR,A
    231            SampleApp_epDesc.latencyReq = noLatencyReqs;
   \   000084   A3           INC     DPTR
   \   000085   E4           CLR     A
   \   000086   F0           MOVX    @DPTR,A
    232          
    233            // Register the endpoint description with the AF
    234            afRegister( &SampleApp_epDesc );
   \   000087                ; Setup parameters for call to function afRegister
   \   000087   7A..         MOV     R2,#SampleApp_epDesc & 0xff
   \   000089   7B..         MOV     R3,#(SampleApp_epDesc >> 8) & 0xff
   \   00008B   12....       LCALL   ??afRegister?relay
    235          
    236            // Register for all key events - This app will handle all key events
    237            RegisterForKeys( SampleApp_TaskID );
   \   00008E                ; Setup parameters for call to function RegisterForKeys
   \   00008E   90....       MOV     DPTR,#SampleApp_TaskID
   \   000091   E0           MOVX    A,@DPTR
   \   000092   F9           MOV     R1,A
   \   000093   12....       LCALL   ??RegisterForKeys?relay
    238          
    239            // By default, all devices start out in Group 1
    240            SampleApp_Group.ID = 0x0001;
   \   000096   90....       MOV     DPTR,#SampleApp_Group
   \   000099   7401         MOV     A,#0x1
   \   00009B   F0           MOVX    @DPTR,A
   \   00009C   A3           INC     DPTR
   \   00009D   E4           CLR     A
   \   00009E   F0           MOVX    @DPTR,A
    241            osal_memcpy( SampleApp_Group.name, "Group 1", 7 );
   \   00009F                ; Setup parameters for call to function osal_memcpy
   \   00009F   75....       MOV     ?V0 + 0,#`?<Constant "Group 1">` & 0xff
   \   0000A2   75....       MOV     ?V0 + 1,#(`?<Constant "Group 1">` >> 8) & 0xff
   \   0000A5   F5..         MOV     ?V0 + 2,A
   \   0000A7   78..         MOV     R0,#?V0 + 0
   \   0000A9   12....       LCALL   ?PUSH_XSTACK_I_THREE
   \   0000AC   7C07         MOV     R4,#0x7
   \   0000AE   7D00         MOV     R5,#0x0
   \   0000B0   7A..         MOV     R2,#(SampleApp_Group + 2) & 0xff
   \   0000B2   7B..         MOV     R3,#((SampleApp_Group + 2) >> 8) & 0xff
   \   0000B4   12....       LCALL   ??osal_memcpy?relay
   \   0000B7   7403         MOV     A,#0x3
   \   0000B9   12....       LCALL   ?DEALLOC_XSTACK8
    242            aps_AddGroup( SAMPLEAPP_ENDPOINT, &SampleApp_Group );
   \   0000BC                ; Setup parameters for call to function aps_AddGroup
   \   0000BC   7A..         MOV     R2,#SampleApp_Group & 0xff
   \   0000BE   7B..         MOV     R3,#(SampleApp_Group >> 8) & 0xff
   \   0000C0   7914         MOV     R1,#0x14
   \   0000C2   12....       LCALL   ??aps_AddGroup?relay
    243          
    244          #if defined ( LCD_SUPPORTED )
    245           // HalLcdWriteString( "SampleApp", HAL_LCD_LINE_1 ); 
    246          #endif
    247          }
   \   0000C5   741D         MOV     A,#0x1d
   \   0000C7   12....       LCALL   ?DEALLOC_XSTACK8
   \   0000CA   7F03         MOV     R7,#0x3
   \   0000CC   02....       LJMP    ?BANKED_LEAVE_XDATA
    248          
    249          /*********************************************************************
    250           * @fn      SampleApp_ProcessEvent
    251           *
    252           * @brief   Generic Application Task event processor.  This function
    253           *          is called to process all events for the task.  Events
    254           *          include timers, messages and any other user defined events.
    255           *
    256           * @param   task_id  - The OSAL assigned task ID.
    257           * @param   events - events to process.  This is a bit map and can
    258           *                   contain more than one event.
    259           *
    260           * @return  none
    261           */

   \                                 In  segment BANKED_CODE, align 1, keep-with-next
    262          uint16 SampleApp_ProcessEvent( uint8 task_id, uint16 events )
   \                     SampleApp_ProcessEvent:
    263          { 
   \   000000   74F4         MOV     A,#-0xc
   \   000002   12....       LCALL   ?BANKED_ENTER_XDATA
   \   000005                ; Saved register size: 12
   \   000005                ; Auto size: 0
   \   000005   EA           MOV     A,R2
   \   000006   FE           MOV     R6,A
   \   000007   EB           MOV     A,R3
   \   000008   FF           MOV     R7,A
    264            afIncomingMSGPacket_t *MSGpkt;
    265            (void)task_id;  // Intentionally unreferenced parameter
    266          
    267            if ( events & SYS_EVENT_MSG )
   \   000009   5480         ANL     A,#0x80
   \   00000B   6057         JZ      ??SampleApp_ProcessEvent_0
    268            {
    269              MSGpkt = (afIncomingMSGPacket_t *)osal_msg_receive( SampleApp_TaskID );
   \   00000D                ; Setup parameters for call to function osal_msg_receive
   \   00000D   8021         SJMP    ??SampleApp_ProcessEvent_1
    270              while ( MSGpkt )
    271              {
    272                switch ( MSGpkt->hdr.event )
    273                {
    274                  // Received when a key is pressed
    275                  case KEY_CHANGE:
    276                  //  SampleApp_HandleKeys( ((keyChange_t *)MSGpkt)->state, ((keyChange_t *)MSGpkt)->keys );
    277                    break;
    278          
    279                  // Received when a messages is received (OTA) for this endpoint
    280                  case AF_INCOMING_MSG_CMD:
    281                    SampleApp_MessageMSGCB( MSGpkt );
    282                    break;
    283          
    284                  // Received whenever the device changes state in the network
    285                  case ZDO_STATE_CHANGE:
    286                    SampleApp_NwkState = (devStates_t)(MSGpkt->hdr.status);
   \                     ??SampleApp_ProcessEvent_2:
   \   00000F   A3           INC     DPTR
   \   000010   E0           MOVX    A,@DPTR
   \   000011   90....       MOV     DPTR,#SampleApp_NwkState
   \   000014   F0           MOVX    @DPTR,A
    287                    
    288                    if (SampleApp_NwkState == DEV_ZB_COORD)//设备作为协调器
   \   000015   6409         XRL     A,#0x9
   \   000017   7010         JNZ     ??SampleApp_ProcessEvent_3
    289                    { 
    290                        osal_start_timerEx( SampleApp_TaskID,SAMPLEAPP_SEND_PERIODIC_MSG_EVT,2000 );//周期采集传感器值 
   \   000019                ; Setup parameters for call to function osal_start_timerEx
   \   000019   7CD0         MOV     R4,#-0x30
   \   00001B   7D07         MOV     R5,#0x7
   \   00001D   7A01         MOV     R2,#0x1
   \   00001F   7B00         MOV     R3,#0x0
   \   000021   90....       MOV     DPTR,#SampleApp_TaskID
   \   000024   E0           MOVX    A,@DPTR
   \   000025   F9           MOV     R1,A
   \   000026   12....       LCALL   ??osal_start_timerEx?relay
    291                    }
    292                    else
    293                    {
    294                      // Device is no longer in the network
    295                    }
    296                    break;
    297          
    298                  default:
    299                    break;
    300                }
    301          
    302                // Release the memory
    303                osal_msg_deallocate( (uint8 *)MSGpkt );
   \                     ??SampleApp_ProcessEvent_3:
   \   000029                ; Setup parameters for call to function osal_msg_deallocate
   \   000029   AA..         MOV     R2,?V0 + 0
   \   00002B   AB..         MOV     R3,?V0 + 1
   \   00002D   12....       LCALL   ??osal_msg_deallocate?relay
    304          
    305                // Next - if one is available
    306                MSGpkt = (afIncomingMSGPacket_t *)osal_msg_receive( SampleApp_TaskID );
   \   000030                ; Setup parameters for call to function osal_msg_receive
   \                     ??SampleApp_ProcessEvent_1:
   \   000030   90....       MOV     DPTR,#SampleApp_TaskID
   \   000033   E0           MOVX    A,@DPTR
   \   000034   F9           MOV     R1,A
   \   000035   12....       LCALL   ??osal_msg_receive?relay
   \   000038   8A..         MOV     ?V0 + 0,R2
   \   00003A   8B..         MOV     ?V0 + 1,R3
   \   00003C   E5..         MOV     A,?V0 + 0
   \   00003E   45..         ORL     A,?V0 + 1
   \   000040   601A         JZ      ??SampleApp_ProcessEvent_4
   \   000042   85..82       MOV     DPL,?V0 + 0
   \   000045   85..83       MOV     DPH,?V0 + 1
   \   000048   E0           MOVX    A,@DPTR
   \   000049   24E6         ADD     A,#-0x1a
   \   00004B   6006         JZ      ??SampleApp_ProcessEvent_5
   \   00004D   2449         ADD     A,#0x49
   \   00004F   60BE         JZ      ??SampleApp_ProcessEvent_2
   \   000051   80D6         SJMP    ??SampleApp_ProcessEvent_3
   \                     ??SampleApp_ProcessEvent_5:
   \   000053                ; Setup parameters for call to function SampleApp_MessageMSGCB
   \   000053   AA..         MOV     R2,?V0 + 0
   \   000055   AB..         MOV     R3,?V0 + 1
   \   000057   12....       LCALL   ??SampleApp_MessageMSGCB?relay
   \   00005A   80CD         SJMP    ??SampleApp_ProcessEvent_3
    307              }
    308          
    309              // return unprocessed events
    310              return (events ^ SYS_EVENT_MSG);
   \                     ??SampleApp_ProcessEvent_4:
   \   00005C   EE           MOV     A,R6
   \   00005D   FA           MOV     R2,A
   \   00005E   EF           MOV     A,R7
   \   00005F   6480         XRL     A,#0x80
   \                     ??SampleApp_ProcessEvent_6:
   \   000061   FB           MOV     R3,A
   \   000062   8020         SJMP    ??SampleApp_ProcessEvent_7
    311            }
    312          
    313            // Send a message out - This event is generated by a timer
    314            //  (setup in SampleApp_Init()).
    315            if ( events & SAMPLEAPP_SEND_PERIODIC_MSG_EVT )
   \                     ??SampleApp_ProcessEvent_0:
   \   000064   EE           MOV     A,R6
   \   000065   A2E0         MOV     C,0xE0 /* A   */.0
   \   000067   5017         JNC     ??SampleApp_ProcessEvent_8
    316            {
    317              // Send the periodic message
    318              SampleApp_SendPeriodicMessage();
    319          
    320              // Setup to send message again in normal period (+ a little jitter)
    321              osal_start_timerEx( SampleApp_TaskID, SAMPLEAPP_SEND_PERIODIC_MSG_EVT,
    322                 2000);
   \   000069                ; Setup parameters for call to function osal_start_timerEx
   \   000069   7CD0         MOV     R4,#-0x30
   \   00006B   7D07         MOV     R5,#0x7
   \   00006D   7A01         MOV     R2,#0x1
   \   00006F   7B00         MOV     R3,#0x0
   \   000071   90....       MOV     DPTR,#SampleApp_TaskID
   \   000074   E0           MOVX    A,@DPTR
   \   000075   F9           MOV     R1,A
   \   000076   12....       LCALL   ??osal_start_timerEx?relay
    323          
    324              // return unprocessed events
    325              return (events ^ SAMPLEAPP_SEND_PERIODIC_MSG_EVT);
   \   000079   EE           MOV     A,R6
   \   00007A   6401         XRL     A,#0x1
   \   00007C   FA           MOV     R2,A
   \   00007D   EF           MOV     A,R7
   \   00007E   80E1         SJMP    ??SampleApp_ProcessEvent_6
    326            }
    327          
    328            // Discard unknown events
    329            return 0;
   \                     ??SampleApp_ProcessEvent_8:
   \   000080   7A00         MOV     R2,#0x0
   \   000082   7B00         MOV     R3,#0x0
   \                     ??SampleApp_ProcessEvent_7:
   \   000084   7F04         MOV     R7,#0x4
   \   000086   02....       LJMP    ?BANKED_LEAVE_XDATA
    330          }
    331          
    332          
    333          /*********************************************************************
    334           * LOCAL FUNCTIONS
    335           */
    336          
    337          /*********************************************************************
    338           * @fn      SampleApp_MessageMSGCB
    339           *
    340           * @brief   Data message processor callback.  This function processes
    341           *          any incoming data - probably from other devices.  So, based
    342           *          on cluster ID, perform the intended action.
    343           *
    344           * @param   none
    345           *
    346           * @return  none
    347           */

   \                                 In  segment BANKED_CODE, align 1, keep-with-next
    348          void SampleApp_MessageMSGCB( afIncomingMSGPacket_t *pkt )
   \                     SampleApp_MessageMSGCB:
    349          {
   \   000000   74F6         MOV     A,#-0xa
   \   000002   12....       LCALL   ?BANKED_ENTER_XDATA
   \   000005                ; Saved register size: 10
   \   000005                ; Auto size: 0
    350            switch ( pkt->clusterId )
   \   000005   8A82         MOV     DPL,R2
   \   000007   8B83         MOV     DPH,R3
   \   000009   A3           INC     DPTR
   \   00000A   A3           INC     DPTR
   \   00000B   A3           INC     DPTR
   \   00000C   A3           INC     DPTR
   \   00000D   E0           MOVX    A,@DPTR
   \   00000E   6401         XRL     A,#0x1
   \   000010   7002         JNZ     ??SampleApp_MessageMSGCB_0
   \   000012   A3           INC     DPTR
   \   000013   E0           MOVX    A,@DPTR
   \                     ??SampleApp_MessageMSGCB_0:
   \   000014   7066         JNZ     ??SampleApp_MessageMSGCB_1
    351            {    
    352              case SAMPLEAPP_PERIODIC_CLUSTERID:   
    353                   HalUARTWrite(0,pkt->cmd.Data,pkt->cmd.DataLength); //输出接收到的数据
   \   000016                ; Setup parameters for call to function HalUARTWrite
   \   000016   EA           MOV     A,R2
   \   000017   241F         ADD     A,#0x1f
   \   000019   F582         MOV     DPL,A
   \   00001B   EB           MOV     A,R3
   \   00001C   3400         ADDC    A,#0x0
   \   00001E   F583         MOV     DPH,A
   \   000020   E0           MOVX    A,@DPTR
   \   000021   FC           MOV     R4,A
   \   000022   A3           INC     DPTR
   \   000023   E0           MOVX    A,@DPTR
   \   000024   FD           MOV     R5,A
   \   000025   EA           MOV     A,R2
   \   000026   2421         ADD     A,#0x21
   \   000028   F582         MOV     DPL,A
   \   00002A   EB           MOV     A,R3
   \   00002B   3400         ADDC    A,#0x0
   \   00002D   F583         MOV     DPH,A
   \   00002F   E0           MOVX    A,@DPTR
   \   000030   FA           MOV     R2,A
   \   000031   A3           INC     DPTR
   \   000032   E0           MOVX    A,@DPTR
   \   000033   FB           MOV     R3,A
   \   000034   7900         MOV     R1,#0x0
   \   000036   12....       LCALL   ??HalUARTWrite?relay
    354                    if (  AF_DataRequest( &SampleApp_Periodic_DstAddr, &SampleApp_epDesc,
    355                                 SAMPLEAPP_FLASH_CLUSTERID,
    356                                 3,
    357                                 uartbuf,
    358                                 &SampleApp_TransID,
    359                                 AF_DISCV_ROUTE,
    360                                 AF_DEFAULT_RADIUS ) == afStatus_SUCCESS)
   \   000039                ; Setup parameters for call to function AF_DataRequest
   \   000039   75..1E       MOV     ?V0 + 0,#0x1e
   \   00003C   78..         MOV     R0,#?V0 + 0
   \   00003E   12....       LCALL   ?PUSH_XSTACK_I_ONE
   \   000041   75....       MOV     ?V0 + 0,#SampleApp_TransID & 0xff
   \   000044   75....       MOV     ?V0 + 1,#(SampleApp_TransID >> 8) & 0xff
   \   000047   78..         MOV     R0,#?V0 + 0
   \   000049   12....       LCALL   ?PUSH_XSTACK_I_TWO
   \   00004C   75....       MOV     ?V0 + 0,#uartbuf & 0xff
   \   00004F   75....       MOV     ?V0 + 1,#(uartbuf >> 8) & 0xff
   \   000052   78..         MOV     R0,#?V0 + 0
   \   000054   12....       LCALL   ?PUSH_XSTACK_I_TWO
   \   000057   75..03       MOV     ?V0 + 0,#0x3
   \   00005A   75..00       MOV     ?V0 + 1,#0x0
   \   00005D   78..         MOV     R0,#?V0 + 0
   \   00005F   12....       LCALL   ?PUSH_XSTACK_I_TWO
   \   000062   75..02       MOV     ?V0 + 0,#0x2
   \   000065   78..         MOV     R0,#?V0 + 0
   \   000067   12....       LCALL   ?PUSH_XSTACK_I_TWO
   \   00006A   7920         MOV     R1,#0x20
   \   00006C   7C..         MOV     R4,#SampleApp_epDesc & 0xff
   \   00006E   7D..         MOV     R5,#(SampleApp_epDesc >> 8) & 0xff
   \   000070   7A..         MOV     R2,#SampleApp_Periodic_DstAddr & 0xff
   \   000072   7B..         MOV     R3,#(SampleApp_Periodic_DstAddr >> 8) & 0xff
   \   000074   12....       LCALL   ??AF_DataRequest?relay
   \   000077   7409         MOV     A,#0x9
   \   000079   12....       LCALL   ?DEALLOC_XSTACK8
    361                {
    362                }
    363                break;
    364                case SAMPLEAPP_FLASH_CLUSTERID:   
    365                  
    366                break;
    367          
    368            }
    369          }
   \                     ??SampleApp_MessageMSGCB_1:
   \   00007C                REQUIRE ?Subroutine0
   \   00007C                ; // Fall through to label ?Subroutine0

   \                                 In  segment BANKED_CODE, align 1, keep-with-next
   \                     ?Subroutine0:
   \   000000   7F02         MOV     R7,#0x2
   \   000002   02....       LJMP    ?BANKED_LEAVE_XDATA
    370          
    371          /*********************************************************************
    372           * @fn      SampleApp_SendPeriodicMessage
    373           *
    374           * @brief   Send the periodic message.
    375           *
    376           * @param   none
    377           *
    378           * @return  none
    379           */

   \                                 In  segment BANKED_CODE, align 1, keep-with-next
    380          void SampleApp_SendPeriodicMessage( void )
   \                     SampleApp_SendPeriodicMessage:
    381          {
   \   000000                ; Saved register size: 0
   \   000000                ; Auto size: 0
    382            
    383          }
   \   000000   02....       LJMP    ?BRET
    384          
    385          /*********************************************************************
    386           * @fn      SampleApp_SendFlashMessage
    387           *
    388           * @brief   Send the flash message to group 1.
    389           *
    390           * @param   flashTime - in milliseconds
    391           *
    392           * @return  none
    393           */

   \                                 In  segment BANKED_CODE, align 1, keep-with-next
    394          void SampleApp_SendFlashMessage( uint16 flashTime )
   \                     SampleApp_SendFlashMessage:
    395          {
   \   000000   74F6         MOV     A,#-0xa
   \   000002   12....       LCALL   ?BANKED_ENTER_XDATA
   \   000005                ; Saved register size: 10
   \   000005                ; Auto size: 3
   \   000005   74FD         MOV     A,#-0x3
   \   000007   12....       LCALL   ?ALLOC_XSTACK8
    396            uint8 buffer[3];
    397            buffer[0] = (uint8)(SampleAppFlashCounter++);
   \   00000A   90....       MOV     DPTR,#SampleAppFlashCounter
   \   00000D   E0           MOVX    A,@DPTR
   \   00000E   85..82       MOV     DPL,?XSP + 0
   \   000011   85..83       MOV     DPH,?XSP + 1
   \   000014   F0           MOVX    @DPTR,A
   \   000015   90....       MOV     DPTR,#SampleAppFlashCounter
   \   000018   E0           MOVX    A,@DPTR
   \   000019   04           INC     A
   \   00001A   F0           MOVX    @DPTR,A
    398            buffer[1] = LO_UINT16( flashTime );
   \   00001B   7401         MOV     A,#0x1
   \   00001D   12....       LCALL   ?XSTACK_DISP0_8
   \   000020   EA           MOV     A,R2
   \   000021   F0           MOVX    @DPTR,A
    399            buffer[2] = HI_UINT16( flashTime );
   \   000022   7402         MOV     A,#0x2
   \   000024   12....       LCALL   ?XSTACK_DISP0_8
   \   000027   EB           MOV     A,R3
   \   000028   F0           MOVX    @DPTR,A
    400          
    401            if ( AF_DataRequest( &SampleApp_Flash_DstAddr, &SampleApp_epDesc,
    402                                 SAMPLEAPP_FLASH_CLUSTERID,
    403                                 3,
    404                                 buffer,
    405                                 &SampleApp_TransID,
    406                                 AF_DISCV_ROUTE,
    407                                 AF_DEFAULT_RADIUS ) == afStatus_SUCCESS)
   \   000029                ; Setup parameters for call to function AF_DataRequest
   \   000029   75..1E       MOV     ?V0 + 0,#0x1e
   \   00002C   78..         MOV     R0,#?V0 + 0
   \   00002E   12....       LCALL   ?PUSH_XSTACK_I_ONE
   \   000031   75....       MOV     ?V0 + 0,#SampleApp_TransID & 0xff
   \   000034   75....       MOV     ?V0 + 1,#(SampleApp_TransID >> 8) & 0xff
   \   000037   78..         MOV     R0,#?V0 + 0
   \   000039   12....       LCALL   ?PUSH_XSTACK_I_TWO
   \   00003C   7403         MOV     A,#0x3
   \   00003E   12....       LCALL   ?XSTACK_DISP0_8
   \   000041   8582..       MOV     ?V0 + 0,DPL
   \   000044   8583..       MOV     ?V0 + 1,DPH
   \   000047   78..         MOV     R0,#?V0 + 0
   \   000049   12....       LCALL   ?PUSH_XSTACK_I_TWO
   \   00004C   75..03       MOV     ?V0 + 0,#0x3
   \   00004F   75..00       MOV     ?V0 + 1,#0x0
   \   000052   78..         MOV     R0,#?V0 + 0
   \   000054   12....       LCALL   ?PUSH_XSTACK_I_TWO
   \   000057   75..02       MOV     ?V0 + 0,#0x2
   \   00005A   78..         MOV     R0,#?V0 + 0
   \   00005C   12....       LCALL   ?PUSH_XSTACK_I_TWO
   \   00005F   7920         MOV     R1,#0x20
   \   000061   7C..         MOV     R4,#SampleApp_epDesc & 0xff
   \   000063   7D..         MOV     R5,#(SampleApp_epDesc >> 8) & 0xff
   \   000065   7A..         MOV     R2,#SampleApp_Flash_DstAddr & 0xff
   \   000067   7B..         MOV     R3,#(SampleApp_Flash_DstAddr >> 8) & 0xff
   \   000069   12....       LCALL   ??AF_DataRequest?relay
   \   00006C   7409         MOV     A,#0x9
   \   00006E   12....       LCALL   ?DEALLOC_XSTACK8
    408            {
    409            }
    410            else
    411            {
    412              // Error occurred in request to send.
    413            }
    414          }
   \   000071   7403         MOV     A,#0x3
   \   000073   12....       LCALL   ?DEALLOC_XSTACK8
   \   000076   80..         SJMP    ?Subroutine0
    415          
    416          //数据来源于串口调试助手

   \                                 In  segment BANKED_CODE, align 1, keep-with-next
    417          static void rxCB(uint8 port,uint8 event)
   \                     rxCB:
    418          {
   \   000000   74F6         MOV     A,#-0xa
   \   000002   12....       LCALL   ?BANKED_ENTER_XDATA
   \   000005                ; Saved register size: 10
   \   000005                ; Auto size: 0
    419             (void)port;
    420             uint8 i;
                          ^
Warning[Pe177]: variable "i" was declared but never referenced
    421          
    422             HalUARTRead(0,uartbuf,3);//参数下发
   \   000005                ; Setup parameters for call to function HalUARTRead
   \   000005   7C03         MOV     R4,#0x3
   \   000007   7D00         MOV     R5,#0x0
   \   000009   7A..         MOV     R2,#uartbuf & 0xff
   \   00000B   7B..         MOV     R3,#(uartbuf >> 8) & 0xff
   \   00000D   7900         MOV     R1,#0x0
   \   00000F   12....       LCALL   ??HalUARTRead?relay
    423             if(uartbuf[1]=='#')
   \   000012   90....       MOV     DPTR,#uartbuf + 1
   \   000015   E0           MOVX    A,@DPTR
   \   000016   6423         XRL     A,#0x23
   \   000018   7043         JNZ     ??rxCB_0
    424             {
    425               if (  AF_DataRequest( &SampleApp_Periodic_DstAddr, &SampleApp_epDesc,
    426                                 SAMPLEAPP_FLASH_CLUSTERID,
    427                                 3,
    428                                 uartbuf,
    429                                 &SampleApp_TransID,
    430                                 AF_DISCV_ROUTE,
    431                                 AF_DEFAULT_RADIUS ) == afStatus_SUCCESS)
   \   00001A                ; Setup parameters for call to function AF_DataRequest
   \   00001A   75..1E       MOV     ?V0 + 0,#0x1e
   \   00001D   78..         MOV     R0,#?V0 + 0
   \   00001F   12....       LCALL   ?PUSH_XSTACK_I_ONE
   \   000022   75....       MOV     ?V0 + 0,#SampleApp_TransID & 0xff
   \   000025   75....       MOV     ?V0 + 1,#(SampleApp_TransID >> 8) & 0xff
   \   000028   78..         MOV     R0,#?V0 + 0
   \   00002A   12....       LCALL   ?PUSH_XSTACK_I_TWO
   \   00002D   75....       MOV     ?V0 + 0,#uartbuf & 0xff
   \   000030   75....       MOV     ?V0 + 1,#(uartbuf >> 8) & 0xff
   \   000033   78..         MOV     R0,#?V0 + 0
   \   000035   12....       LCALL   ?PUSH_XSTACK_I_TWO
   \   000038   75..03       MOV     ?V0 + 0,#0x3
   \   00003B   75..00       MOV     ?V0 + 1,#0x0
   \   00003E   78..         MOV     R0,#?V0 + 0
   \   000040   12....       LCALL   ?PUSH_XSTACK_I_TWO
   \   000043   75..02       MOV     ?V0 + 0,#0x2
   \   000046   78..         MOV     R0,#?V0 + 0
   \   000048   12....       LCALL   ?PUSH_XSTACK_I_TWO
   \   00004B   7920         MOV     R1,#0x20
   \   00004D   7C..         MOV     R4,#SampleApp_epDesc & 0xff
   \   00004F   7D..         MOV     R5,#(SampleApp_epDesc >> 8) & 0xff
   \   000051   7A..         MOV     R2,#SampleApp_Periodic_DstAddr & 0xff
   \   000053   7B..         MOV     R3,#(SampleApp_Periodic_DstAddr >> 8) & 0xff
   \   000055   12....       LCALL   ??AF_DataRequest?relay
   \   000058   7409         MOV     A,#0x9
   \   00005A   12....       LCALL   ?DEALLOC_XSTACK8
    432                {
    433                }
    434              
    435          
    436             }
    437          }
   \                     ??rxCB_0:
   \   00005D   02....       LJMP    ?Subroutine0 & 0xFFFF

   \                                 In  segment BANK_RELAYS, align 1
   \                     ??SampleApp_Init?relay:
   \   000000   12....       LCALL   ?BDISPATCH
   \   000003   ......       DC24    SampleApp_Init

   \                                 In  segment BANK_RELAYS, align 1
   \                     ??SampleApp_ProcessEvent?relay:
   \   000000   12....       LCALL   ?BDISPATCH
   \   000003   ......       DC24    SampleApp_ProcessEvent

   \                                 In  segment BANK_RELAYS, align 1
   \                     ??SampleApp_MessageMSGCB?relay:
   \   000000   12....       LCALL   ?BDISPATCH
   \   000003   ......       DC24    SampleApp_MessageMSGCB

   \                                 In  segment BANK_RELAYS, align 1
   \                     ??SampleApp_SendPeriodicMessage?relay:
   \   000000   12....       LCALL   ?BDISPATCH
   \   000003   ......       DC24    SampleApp_SendPeriodicMessage

   \                                 In  segment BANK_RELAYS, align 1
   \                     ??SampleApp_SendFlashMessage?relay:
   \   000000   12....       LCALL   ?BDISPATCH
   \   000003   ......       DC24    SampleApp_SendFlashMessage

   \                                 In  segment BANK_RELAYS, align 1
   \                     ??rxCB?relay:
   \   000000   12....       LCALL   ?BDISPATCH
   \   000003   ......       DC24    rxCB

   \                                 In  segment XDATA_ROM_C, align 1
   \                     `?<Constant "Group 1">`:
   \   000000   47726F75     DB "Group 1"
   \            70203100

   Maximum stack usage in bytes:

     Function                      ISTACK PSTACK XSTACK
     --------                      ------ ------ ------
     SampleApp_Init                    0      0     43
       -> HalUARTOpen                  0      0     80
       -> afRegister                   0      0     80
       -> RegisterForKeys              0      0     80
       -> osal_memcpy                  0      0     86
       -> aps_AddGroup                 0      0     80
     SampleApp_MessageMSGCB            0      0     31
       -> HalUARTWrite                 0      0     20
       -> AF_DataRequest               0      0     38
     SampleApp_ProcessEvent            0      0     12
       -> osal_msg_receive             0      0     24
       -> osal_start_timerEx           0      0     24
       -> osal_msg_deallocate          0      0     24
       -> osal_msg_receive             0      0     24
       -> SampleApp_MessageMSGCB       0      0     24
       -> osal_start_timerEx           0      0     24
     SampleApp_SendFlashMessage        1      0     22
       -> AF_DataRequest               0      0     44
     SampleApp_SendPeriodicMessage     0      0      0
     rxCB                              0      0     19
       -> HalUARTRead                  0      0     20
       -> AF_DataRequest               0      0     38


   Segment part sizes:

     Function/Label                        Bytes
     --------------                        -----
     LedState                                 1
     uartbuf                                  3
     SampleApp_ClusterList                    8
     SampleApp_SimpleDesc                    12
     SampleApp_epDesc                         6
     SampleApp_TaskID                         1
     SampleApp_NwkState                       1
     SampleApp_TransID                        1
     SampleApp_Periodic_DstAddr              12
     SampleApp_Flash_DstAddr                 12
     SampleApp_Group                         18
     SampleAppPeriodicCounter                 1
     SampleAppFlashCounter                    1
     sensor_value                            20
     SampleApp_Init                         207
     SampleApp_ProcessEvent                 137
     SampleApp_MessageMSGCB                 124
     ?Subroutine0                             5
     SampleApp_SendPeriodicMessage            3
     SampleApp_SendFlashMessage             120
     rxCB                                    96
     ??SampleApp_Init?relay                   6
     ??SampleApp_ProcessEvent?relay           6
     ??SampleApp_MessageMSGCB?relay           6
     ??SampleApp_SendPeriodicMessage?relay    6
     ??SampleApp_SendFlashMessage?relay       6
     ??rxCB?relay                             6
     ?<Constant "Group 1">                    8

 
 692 bytes in segment BANKED_CODE
  36 bytes in segment BANK_RELAYS
  28 bytes in segment XDATA_ROM_C
  77 bytes in segment XDATA_Z
 
 728 bytes of CODE  memory
  28 bytes of CONST memory
  77 bytes of XDATA memory

Errors: none
Warnings: 1
